target datalayout = "e-m:e-p270:32:32-p271:32:32-p272:64:64-i64:64-i128:128-f80:128-n8:16:32:64-S128"
target triple = "x86_64-unknown-linux-gnu"

@.str.5 = private unnamed_addr constant [20 x i8] c"RUNNING_ON_VALGRIND\00", align 1
@.str.6 = private unnamed_addr constant [2 x i8] c"0\00", align 1

; Function Attrs: mustprogress nounwind uwtable
define dso_local noundef zeroext i1 @_ZN2EA8UnitTest22IsRunningUnderValgrindEv() #1 {
entry:
  %retval = alloca i1, align 1
  %pValue = alloca ptr, align 8
  %call = call ptr @getenv(ptr noundef @.str.5) #13
  store ptr %call, ptr %pValue, align 8
  %0 = load ptr, ptr %pValue, align 8
  %tobool = icmp ne ptr %0, null
  br i1 %tobool, label %if.then, label %if.end

if.then:                                          ; preds = %entry
  %1 = load ptr, ptr %pValue, align 8
  %call1 = call i32 @strcmp(ptr noundef %1, ptr noundef @.str.6) #16
  %cmp = icmp ne i32 %call1, 0
  store i1 %cmp, ptr %retval, align 1
  br label %return

if.end:                                           ; preds = %entry
  store i1 false, ptr %retval, align 1
  br label %return

return:                                           ; preds = %if.end, %if.then
  %2 = load i1, ptr %retval, align 1
  ret i1 %2
}