; Function Attrs: mustprogress nofree nounwind willreturn memory(read) uwtable
define dso_local noundef zeroext i1 @_ZN2EA8UnitTest22IsRunningUnderValgrindEv() local_unnamed_addr #9 {
entry:
  %call = tail call ptr @getenv(ptr noundef nonnull @.str.5) #32
  %tobool.not = icmp eq ptr %call, null
  br i1 %tobool.not, label %return, label %if.then

if.then:                                          ; preds = %entry
  %call1 = tail call i32 @strcmp(ptr noundef nonnull dereferenceable(1) %call, ptr noundef nonnull dereferenceable(2) @.str.6) #33
  %cmp = icmp ne i32 %call1, 0
  br label %return

return:                                           ; preds = %entry, %if.then
  %retval.0 = phi i1 [ %cmp, %if.then ], [ false, %entry ]
  ret i1 %retval.0
}